Certificate:
    Data:
        Version: 3 (0x2)
        Serial Number: 1 (0x1)
        Signature Algorithm: sha256WithRSAEncryption
        Issuer: C=CN, ST=nmg, O=egbert ren, OU=self, CN=egbert/emailAddress=braverzg@163.com
        Validity
            Not Before: May 16 01:56:57 2019 GMT
            Not After : Apr 22 01:56:57 2119 GMT
        Subject: C=CN, ST=nmg, O=egbert ren, OU=self, CN=egbert/emailAddress=braverzg@163.com
        Subject Public Key Info:
            Public Key Algorithm: rsaEncryption
                RSA Public-Key: (2048 bit)
                Modulus:
                    00:9c:ed:7e:d7:03:c7:b6:d1:39:53:30:18:51:80:
                    d1:6c:65:d1:03:75:3e:6c:15:3a:d4:26:8d:02:15:
                    9b:f0:bb:c8:87:ec:ad:5c:58:d6:c2:0e:a8:67:76:
                    f3:ca:d9:d3:0c:37:5a:17:aa:86:76:17:9e:f9:18:
                    27:8a:c6:56:69:0d:44:eb:ce:2f:52:33:76:b5:33:
                    b2:d9:ad:c8:37:b9:30:40:cd:a7:a4:22:52:97:49:
                    9f:2d:f9:2b:88:d7:03:59:4b:56:4e:af:3a:8c:b7:
                    25:78:63:48:53:33:c7:29:6b:57:cb:09:f0:73:68:
                    3e:56:00:34:22:8d:86:c9:09:77:ba:29:56:bc:48:
                    3d:a7:ae:ce:51:13:a7:39:e5:a9:42:95:cf:d3:13:
                    96:1d:11:df:bf:89:65:cf:d7:e2:93:d3:6d:ca:8e:
                    94:c3:e8:f7:10:39:51:0a:62:2f:72:0d:04:6b:b6:
                    ba:f3:d3:c8:b4:90:4a:b2:c1:13:4b:d3:f7:23:3c:
                    34:43:87:e8:af:4d:bb:c0:8e:a1:40:43:5f:bc:12:
                    f1:21:10:51:92:18:b1:85:8c:41:e5:b0:68:5d:9b:
                    ed:62:38:f7:2a:8a:83:cf:34:98:e1:42:4c:e2:7a:
                    4b:43:35:51:4d:6f:a4:86:91:d2:be:e6:52:ac:9a:
                    3a:a9
                Exponent: 65537 (0x10001)
        X509v3 extensions:
            X509v3 Subject Key Identifier: 
                4B:36:ED:7E:73:16:82:70:FA:3C:F2:1F:18:06:43:A1:1F:AF:63:68
            X509v3 Authority Key Identifier: 
                keyid:4B:36:ED:7E:73:16:82:70:FA:3C:F2:1F:18:06:43:A1:1F:AF:63:68

            X509v3 Basic Constraints: critical
                CA:TRUE
    Signature Algorithm: sha256WithRSAEncryption
         76:73:a4:02:99:47:1d:9a:83:18:6f:5f:21:fb:c5:09:84:a1:
         2f:dc:93:ea:b2:68:60:dd:2d:04:a6:af:6a:4e:ad:03:08:11:
         92:0c:6d:80:71:b4:49:6c:70:00:de:02:0f:39:f5:ba:17:a9:
         89:b8:6e:db:65:33:bd:2e:41:29:bb:4d:0d:12:a3:81:5b:b9:
         ad:95:f2:61:c8:5d:9a:b2:95:b7:e2:b3:c1:5b:aa:a6:cb:5b:
         63:be:e3:4e:d0:9b:97:fa:28:c6:1c:fe:5c:64:3f:04:eb:d3:
         d1:c8:b9:f6:8b:e8:1f:59:60:6e:30:0e:0f:1e:db:19:82:43:
         2d:50:c1:3e:f6:88:4e:de:a5:dc:b4:a8:08:4c:56:c4:f4:d9:
         df:b8:dd:3d:47:bf:78:4a:94:bc:2d:e1:d9:fb:51:4e:96:60:
         f5:ae:95:71:8e:77:77:92:56:f8:aa:fb:e8:25:f2:6d:2b:1c:
         4f:0a:8f:c2:92:9a:67:9d:83:9a:a1:00:38:92:87:f9:97:a5:
         4e:29:30:d6:11:b8:72:3a:96:bc:5f:4f:fc:0a:c0:6d:30:cf:
         92:f7:99:d6:93:b7:92:dc:ef:a7:74:66:e4:e1:7b:03:2a:c4:
         7e:bb:bf:e2:16:2b:33:b8:f2:d4:e3:e6:af:3a:83:84:fc:4f:
         54:1b:87:56
-----BEGIN CERTIFICATE-----
MIIDsjCCApqgAwIBAgIBATANBgkqhkiG9w0BAQsFADBxMQswCQYDVQQGEwJDTjEM
MAoGA1UECAwDbm1nMRMwEQYDVQQKDAplZ2JlcnQgcmVuMQ0wCwYDVQQLDARzZWxm
MQ8wDQYDVQQDDAZlZ2JlcnQxHzAdBgkqhkiG9w0BCQEWEGJyYXZlcnpnQDE2My5j
b20wIBcNMTkwNTE2MDE1NjU3WhgPMjExOTA0MjIwMTU2NTdaMHExCzAJBgNVBAYT
AkNOMQwwCgYDVQQIDANubWcxEzARBgNVBAoMCmVnYmVydCByZW4xDTALBgNVBAsM
BHNlbGYxDzANBgNVBAMMBmVnYmVydDEfMB0GCSqGSIb3DQEJARYQYnJhdmVyemdA
MTYzLmNvbTCCASIwDQYJKoZIhvcNAQEBBQADggEPADCCAQoCggEBAJztftcDx7bR
OVMwGFGA0Wxl0QN1PmwVOtQmjQIVm/C7yIfsrVxY1sIOqGd288rZ0ww3WheqhnYX
nvkYJ4rGVmkNROvOL1IzdrUzstmtyDe5MEDNp6QiUpdJny35K4jXA1lLVk6vOoy3
JXhjSFMzxylrV8sJ8HNoPlYANCKNhskJd7opVrxIPaeuzlETpznlqUKVz9MTlh0R
37+JZc/X4pPTbcqOlMPo9xA5UQpiL3INBGu2uvPTyLSQSrLBE0vT9yM8NEOH6K9N
u8COoUBDX7wS8SEQUZIYsYWMQeWwaF2b7WI49yqKg880mOFCTOJ6S0M1UU1vpIaR
0r7mUqyaOqkCAwEAAaNTMFEwHQYDVR0OBBYEFEs27X5zFoJw+jzyHxgGQ6Efr2No
MB8GA1UdIwQYMBaAFEs27X5zFoJw+jzyHxgGQ6Efr2NoMA8GA1UdEwEB/wQFMAMB
Af8wDQYJKoZIhvcNAQELBQADggEBAHZzpAKZRx2agxhvXyH7xQmEoS/ck+qyaGDd
LQSmr2pOrQMIEZIMbYBxtElscADeAg859boXqYm4bttlM70uQSm7TQ0So4Fbua2V
8mHIXZqylbfis8FbqqbLW2O+407Qm5f6KMYc/lxkPwTr09HIufaL6B9ZYG4wDg8e
2xmCQy1QwT72iE7epdy0qAhMVsT02d+43T1Hv3hKlLwt4dn7UU6WYPWulXGOd3eS
Vviq++gl8m0rHE8Kj8KSmmedg5qhADiSh/mXpU4pMNYRuHI6lrxfT/wKwG0wz5L3
mdaTt5Lc76d0ZuThewMqxH67v+IWKzO48tTj5q86g4T8T1Qbh1Y=
-----END CERTIFICATE-----
